target datalayout = "e-m:e-p270:32:32-p271:32:32-p272:64:64-i64:64-i128:128-f80:128-n8:16:32:64-S128"
target triple = "x86_64-pc-linux-gnu"

%struct.plugin_feature_t = type { ptr, ptr, i64 }
%struct.run_command_args_t = type { ptr, ptr, ptr, i8, i32, i32, i8, ptr, ptr, ptr, ptr, i64, ptr, i8 }

@plugin_type = dso_local constant [22 x i8] c"node_features/helpers\00", align 16
@helper_features = internal global ptr null, align 8
@.str.3 = private unnamed_addr constant [2 x i8] c",\00", align 1
@.str.4 = private unnamed_addr constant [43 x i8] c"%s: %s: skipping unregistered feature \22%s\22\00", align 1
@__func__.node_features_p_node_set = private unnamed_addr constant [25 x i8] c"node_features_p_node_set\00", align 1
@exec_time = internal global i32 10, align 4
@.str.31 = private unnamed_addr constant [24 x i8] c"node_features_helpers.c\00", align 1
@__func__._feature_set_state = private unnamed_addr constant [19 x i8] c"_feature_set_state\00", align 1
@.str.41 = private unnamed_addr constant [10 x i8] c"set_state\00", align 1
@.str.42 = private unnamed_addr constant [40 x i8] c"failed to set new value for feature: %s\00", align 1

; Function Attrs: nounwind uwtable
define internal i32 @_feature_set_state(ptr noundef %0) #0 {
  %2 = alloca i32, align 4
  %3 = alloca ptr, align 8
  %4 = alloca ptr, align 8
  %5 = alloca ptr, align 8
  %6 = alloca i32, align 4
  %7 = alloca %struct.run_command_args_t, align 8
  %8 = alloca i32, align 4
  store ptr %0, ptr %3, align 8
  call void @llvm.lifetime.start.p0(i64 8, ptr %4) #8
  call void @llvm.lifetime.start.p0(i64 8, ptr %5) #8
  store ptr null, ptr %5, align 8
  call void @llvm.lifetime.start.p0(i64 4, ptr %6) #8
  store i32 0, ptr %6, align 4
  call void @llvm.lifetime.start.p0(i64 96, ptr %7) #8
  call void @llvm.memset.p0.i64(ptr align 8 %7, i8 0, i64 96, i1 false)
  %9 = getelementptr inbounds nuw %struct.run_command_args_t, ptr %7, i32 0, i32 5
  %10 = load i32, ptr @exec_time, align 4
  %11 = mul i32 %10, 1000
  store i32 %11, ptr %9, align 8
  %12 = getelementptr inbounds nuw %struct.run_command_args_t, ptr %7, i32 0, i32 10
  store ptr %6, ptr %12, align 8
  %13 = load ptr, ptr %3, align 8
  %14 = getelementptr inbounds nuw %struct.plugin_feature_t, ptr %13, i32 0, i32 1
  %15 = load ptr, ptr %14, align 8
  %16 = icmp ne ptr %15, null
  br i1 %16, label %18, label %17

17:                                               ; preds = %1
  store i32 -1, ptr %2, align 4
  store i32 1, ptr %8, align 4
  br label %49

18:                                               ; preds = %1
  %19 = call ptr @slurm_xcalloc(i64 noundef 3, i64 noundef 8, i1 noundef zeroext true, i1 noundef zeroext false, ptr noundef @.str.31, i32 noundef 200, ptr noundef @__func__._feature_set_state)
  store ptr %19, ptr %5, align 8
  %20 = load ptr, ptr %3, align 8
  %21 = getelementptr inbounds nuw %struct.plugin_feature_t, ptr %20, i32 0, i32 1
  %22 = load ptr, ptr %21, align 8
  %23 = call ptr @xstrdup(ptr noundef %22)
  %24 = load ptr, ptr %5, align 8
  %25 = getelementptr inbounds ptr, ptr %24, i64 0
  store ptr %23, ptr %25, align 8
  %26 = load ptr, ptr %3, align 8
  %27 = getelementptr inbounds nuw %struct.plugin_feature_t, ptr %26, i32 0, i32 0
  %28 = load ptr, ptr %27, align 8
  %29 = call ptr @xstrdup(ptr noundef %28)
  %30 = load ptr, ptr %5, align 8
  %31 = getelementptr inbounds ptr, ptr %30, i64 1
  store ptr %29, ptr %31, align 8
  %32 = load ptr, ptr %5, align 8
  %33 = getelementptr inbounds nuw %struct.run_command_args_t, ptr %7, i32 0, i32 7
  store ptr %32, ptr %33, align 8
  %34 = load ptr, ptr %3, align 8
  %35 = getelementptr inbounds nuw %struct.plugin_feature_t, ptr %34, i32 0, i32 1
  %36 = load ptr, ptr %35, align 8
  %37 = getelementptr inbounds nuw %struct.run_command_args_t, ptr %7, i32 0, i32 8
  store ptr %36, ptr %37, align 8
  %38 = getelementptr inbounds nuw %struct.run_command_args_t, ptr %7, i32 0, i32 9
  store ptr @.str.41, ptr %38, align 8
  %39 = call ptr @run_command(ptr noundef %7)
  store ptr %39, ptr %4, align 8
  %40 = load i32, ptr %6, align 4
  %41 = icmp ne i32 %40, 0
  br i1 %41, label %42, label %47

42:                                               ; preds = %18
  %43 = load ptr, ptr %3, align 8
  %44 = getelementptr inbounds nuw %struct.plugin_feature_t, ptr %43, i32 0, i32 0
  %45 = load ptr, ptr %44, align 8
  %46 = call i32 (ptr, ...) @error(ptr noundef @.str.42, ptr noundef %45)
  br label %47

47:                                               ; preds = %42, %18
  call void @slurm_xfree_array(ptr noundef %5)
  call void @slurm_xfree(ptr noundef %4)
  %48 = load i32, ptr %6, align 4
  store i32 %48, ptr %2, align 4
  store i32 1, ptr %8, align 4
  br label %49

49:                                               ; preds = %47, %17
  call void @llvm.lifetime.end.p0(i64 96, ptr %7) #8
  call void @llvm.lifetime.end.p0(i64 4, ptr %6) #8
  call void @llvm.lifetime.end.p0(i64 8, ptr %5) #8
  call void @llvm.lifetime.end.p0(i64 8, ptr %4) #8
  %50 = load i32, ptr %2, align 4
  ret i32 %50
}

; Function Attrs: nounwind uwtable
define dso_local i32 @node_features_p_node_set(ptr noundef %0, ptr noundef %1) #0 {
  %3 = alloca ptr, align 8
  %4 = alloca ptr, align 8
  %5 = alloca ptr, align 8
  %6 = alloca ptr, align 8
  %7 = alloca ptr, align 8
  %8 = alloca ptr, align 8
  %9 = alloca i8, align 1
  %10 = alloca i32, align 4
  store ptr %0, ptr %3, align 8
  store ptr %1, ptr %4, align 8
  call void @llvm.lifetime.start.p0(i64 8, ptr %5) #8
  call void @llvm.lifetime.start.p0(i64 8, ptr %6) #8
  call void @llvm.lifetime.start.p0(i64 8, ptr %7) #8
  store ptr null, ptr %7, align 8
  call void @llvm.lifetime.start.p0(i64 8, ptr %8) #8
  store ptr null, ptr %8, align 8
  call void @llvm.lifetime.start.p0(i64 1, ptr %9) #8
  store i8 0, ptr %9, align 1
  call void @llvm.lifetime.start.p0(i64 4, ptr %10) #8
  store i32 -1, ptr %10, align 4
  %11 = load ptr, ptr %3, align 8
  %12 = call ptr @xstrdup(ptr noundef %11)
  store ptr %12, ptr %7, align 8
  %13 = load ptr, ptr %7, align 8
  %14 = call ptr @strtok_r(ptr noundef %13, ptr noundef @.str.3, ptr noundef %6) #8
  store ptr %14, ptr %5, align 8
  br label %15

15:                                               ; preds = %51, %2
  %16 = load ptr, ptr %5, align 8
  %17 = icmp ne ptr %16, null
  br i1 %17, label %18, label %53

18:                                               ; preds = %15
  %19 = load ptr, ptr @helper_features, align 8
  %20 = load ptr, ptr %5, align 8
  %21 = call ptr @list_find_first(ptr noundef %19, ptr noundef @_cmp_features, ptr noundef %20)
  store ptr %21, ptr %8, align 8
  %22 = load ptr, ptr %8, align 8
  %23 = icmp ne ptr %22, null
  br i1 %23, label %36, label %24

24:                                               ; preds = %18
  br label %25

25:                                               ; preds = %24
  br label %26

26:                                               ; preds = %25
  %27 = call i32 @get_log_level()
  %28 = icmp sge i32 %27, 3
  br i1 %28, label %29, label %31

29:                                               ; preds = %26
  %30 = load ptr, ptr %5, align 8
  call void (i32, ptr, ...) @log_var(i32 noundef 3, ptr noundef @.str.4, ptr noundef @plugin_type, ptr noundef @__func__.node_features_p_node_set, ptr noundef %30)
  br label %31

31:                                               ; preds = %29, %26
  br label %32

32:                                               ; preds = %31
  br label %33

33:                                               ; preds = %32
  br label %34

34:                                               ; preds = %33
  br label %35

35:                                               ; preds = %34
  br label %51

36:                                               ; preds = %18
  %37 = load ptr, ptr %8, align 8
  %38 = getelementptr inbounds nuw %struct.plugin_feature_t, ptr %37, i32 0, i32 2
  %39 = load i64, ptr %38, align 8
  %40 = and i64 %39, 1
  %41 = icmp ne i64 %40, 0
  br i1 %41, label %43, label %42

42:                                               ; preds = %36
  store i8 1, ptr %9, align 1
  br label %43

43:                                               ; preds = %42, %36
  %44 = load ptr, ptr %8, align 8
  %45 = call i32 @_feature_set_state(ptr noundef %44)
  %46 = icmp ne i32 %45, 0
  br i1 %46, label %47, label %50

47:                                               ; preds = %43
  %48 = load ptr, ptr %3, align 8
  %49 = getelementptr inbounds i8, ptr %48, i64 0
  store i8 0, ptr %49, align 1
  br label %58

50:                                               ; preds = %43
  br label %51

51:                                               ; preds = %50, %35
  %52 = call ptr @strtok_r(ptr noundef null, ptr noundef @.str.3, ptr noundef %6) #8
  store ptr %52, ptr %5, align 8
  br label %15, !llvm.loop !11

53:                                               ; preds = %15
  %54 = load i8, ptr %9, align 1, !range !12, !noundef !13
  %55 = trunc i8 %54 to i1
  %56 = load ptr, ptr %4, align 8
  %57 = zext i1 %55 to i8
  store i8 %57, ptr %56, align 1
  store i32 0, ptr %10, align 4
  br label %58

58:                                               ; preds = %53, %47
  call void @slurm_xfree(ptr noundef %7)
  %59 = load i32, ptr %10, align 4
  call void @llvm.lifetime.end.p0(i64 4, ptr %10) #8
  call void @llvm.lifetime.end.p0(i64 1, ptr %9) #8
  call void @llvm.lifetime.end.p0(i64 8, ptr %8) #8
  call void @llvm.lifetime.end.p0(i64 8, ptr %7) #8
  call void @llvm.lifetime.end.p0(i64 8, ptr %6) #8
  call void @llvm.lifetime.end.p0(i64 8, ptr %5) #8
  ret i32 %59
}