; Function Attrs: nounwind uwtable
define dso_local range(i32 -1, 1) i32 @node_features_p_node_set(ptr noundef %0, ptr noundef writeonly captures(none) %1) local_unnamed_addr #0 {
  %3 = alloca ptr, align 8
  %4 = alloca ptr, align 8
  %5 = alloca i32, align 4
  %6 = alloca %struct.run_command_args_t, align 8
  %7 = alloca ptr, align 8
  %8 = alloca ptr, align 8
  call void @llvm.lifetime.start.p0(i64 8, ptr nonnull %7) #10
  call void @llvm.lifetime.start.p0(i64 8, ptr nonnull %8) #10
  %9 = tail call ptr @xstrdup(ptr noundef %0) #10
  store ptr %9, ptr %8, align 8
  %10 = call ptr @strtok_r(ptr noundef %9, ptr noundef nonnull @.str.3, ptr noundef nonnull %7) #10
  %.not20 = icmp eq ptr %10, null
  br i1 %.not20, label %._crit_edge, label %.lr.ph

.lr.ph:                                           ; preds = %2
  %11 = getelementptr inbounds nuw i8, ptr %6, i64 32
  %12 = getelementptr inbounds nuw i8, ptr %6, i64 64
  %13 = getelementptr inbounds nuw i8, ptr %6, i64 40
  %14 = getelementptr inbounds nuw i8, ptr %6, i64 48
  %15 = getelementptr inbounds nuw i8, ptr %6, i64 56
  br label %16

16:                                               ; preds = %.lr.ph, %45
  %.01022 = phi i8 [ 0, %.lr.ph ], [ %.1, %45 ]
  %.01121 = phi ptr [ %10, %.lr.ph ], [ %46, %45 ]
  %17 = load ptr, ptr @helper_features, align 8
  %18 = call ptr @list_find_first(ptr noundef %17, ptr noundef nonnull @_cmp_features, ptr noundef nonnull %.01121) #10
  %.not13 = icmp eq ptr %18, null
  br i1 %.not13, label %19, label %23

19:                                               ; preds = %16
  %20 = call i32 @get_log_level() #10
  %21 = icmp sgt i32 %20, 2
  br i1 %21, label %22, label %45

22:                                               ; preds = %19
  call void (i32, ptr, ...) @log_var(i32 noundef 3, ptr noundef nonnull @.str.4, ptr noundef nonnull @plugin_type, ptr noundef nonnull @__func__.node_features_p_node_set, ptr noundef nonnull %.01121) #10
  br label %45

23:                                               ; preds = %16
  %24 = getelementptr inbounds nuw i8, ptr %18, i64 16
  %25 = load i64, ptr %24, align 8
  %26 = and i64 %25, 1
  %.not14 = icmp eq i64 %26, 0
  %spec.select = select i1 %.not14, i8 1, i8 %.01022
  call void @llvm.lifetime.start.p0(i64 8, ptr nonnull %3) #10
  call void @llvm.lifetime.start.p0(i64 8, ptr nonnull %4) #10
  call void @llvm.lifetime.start.p0(i64 4, ptr nonnull %5) #10
  store i32 0, ptr %5, align 4
  call void @llvm.lifetime.start.p0(i64 96, ptr nonnull %6) #10
  call void @llvm.memset.p0.i64(ptr noundef nonnull align 8 dereferenceable(96) %6, i8 0, i64 96, i1 false)
  %27 = load i32, ptr @exec_time, align 4
  %28 = mul i32 %27, 1000
  store i32 %28, ptr %11, align 8
  store ptr %5, ptr %12, align 8
  %29 = getelementptr inbounds nuw i8, ptr %18, i64 8
  %30 = load ptr, ptr %29, align 8
  %.not.i = icmp eq ptr %30, null
  br i1 %.not.i, label %_feature_set_state.exit.thread, label %31

_feature_set_state.exit.thread:                   ; preds = %23
  call void @llvm.lifetime.end.p0(i64 96, ptr nonnull %6) #10
  call void @llvm.lifetime.end.p0(i64 4, ptr nonnull %5) #10
  call void @llvm.lifetime.end.p0(i64 8, ptr nonnull %4) #10
  call void @llvm.lifetime.end.p0(i64 8, ptr nonnull %3) #10
  br label %.loopexit

31:                                               ; preds = %23
  %32 = call ptr @slurm_xcalloc(i64 noundef 3, i64 noundef 8, i1 noundef zeroext true, i1 noundef zeroext false, ptr noundef nonnull @.str.31, i32 noundef 200, ptr noundef nonnull @__func__._feature_set_state) #10
  store ptr %32, ptr %4, align 8
  %33 = load ptr, ptr %29, align 8
  %34 = call ptr @xstrdup(ptr noundef %33) #10
  store ptr %34, ptr %32, align 8
  %35 = load ptr, ptr %18, align 8
  %36 = call ptr @xstrdup(ptr noundef %35) #10
  %37 = getelementptr inbounds nuw i8, ptr %32, i64 8
  store ptr %36, ptr %37, align 8
  store ptr %32, ptr %13, align 8
  %38 = load ptr, ptr %29, align 8
  store ptr %38, ptr %14, align 8
  store ptr @.str.41, ptr %15, align 8
  %39 = call ptr @run_command(ptr noundef nonnull %6) #10
  store ptr %39, ptr %3, align 8
  %40 = load i32, ptr %5, align 4
  %.not5.i = icmp eq i32 %40, 0
  br i1 %.not5.i, label %_feature_set_state.exit, label %41

41:                                               ; preds = %31
  %42 = load ptr, ptr %18, align 8
  %43 = call i32 (ptr, ...) @error(ptr noundef nonnull @.str.42, ptr noundef %42) #10
  br label %_feature_set_state.exit

_feature_set_state.exit:                          ; preds = %31, %41
  call void @slurm_xfree_array(ptr noundef nonnull %4) #10
  call void @slurm_xfree(ptr noundef nonnull %3) #10
  %44 = load i32, ptr %5, align 4
  call void @llvm.lifetime.end.p0(i64 96, ptr nonnull %6) #10
  call void @llvm.lifetime.end.p0(i64 4, ptr nonnull %5) #10
  call void @llvm.lifetime.end.p0(i64 8, ptr nonnull %4) #10
  call void @llvm.lifetime.end.p0(i64 8, ptr nonnull %3) #10
  %.not15 = icmp eq i32 %44, 0
  br i1 %.not15, label %45, label %.loopexit

.loopexit:                                        ; preds = %_feature_set_state.exit, %_feature_set_state.exit.thread
  store i8 0, ptr %0, align 1
  br label %48

45:                                               ; preds = %_feature_set_state.exit, %19, %22
  %.1 = phi i8 [ %spec.select, %_feature_set_state.exit ], [ %.01022, %22 ], [ %.01022, %19 ]
  %46 = call ptr @strtok_r(ptr noundef null, ptr noundef nonnull @.str.3, ptr noundef nonnull %7) #10
  %.not = icmp eq ptr %46, null
  br i1 %.not, label %._crit_edge.loopexit, label %16, !llvm.loop !14

._crit_edge.loopexit:                             ; preds = %45
  %47 = and i8 %.1, 1
  br label %._crit_edge

._crit_edge:                                      ; preds = %._crit_edge.loopexit, %2
  %.010.lcssa = phi i8 [ 0, %2 ], [ %47, %._crit_edge.loopexit ]
  store i8 %.010.lcssa, ptr %1, align 1
  br label %48

48:                                               ; preds = %._crit_edge, %.loopexit
  %.0 = phi i32 [ -1, %.loopexit ], [ 0, %._crit_edge ]
  call void @slurm_xfree(ptr noundef nonnull %8) #10
  call void @llvm.lifetime.end.p0(i64 8, ptr nonnull %8) #10
  call void @llvm.lifetime.end.p0(i64 8, ptr nonnull %7) #10
  ret i32 %.0
}